; Function Attrs: nounwind uwtable
define hidden void @xmlreader_objects_free_storage(ptr noundef %0) #0 {
  %2 = getelementptr inbounds i8, ptr %0, i64 -32
  tail call void @zend_object_std_dtor(ptr noundef nonnull %0) #11
  %3 = getelementptr inbounds i8, ptr %0, i64 -24
  %4 = load ptr, ptr %3, align 8
  %.not.i = icmp eq ptr %4, null
  br i1 %.not.i, label %6, label %5

5:                                                ; preds = %1
  tail call void @xmlFreeParserInputBuffer(ptr noundef nonnull %4) #11
  store ptr null, ptr %3, align 8
  br label %6

6:                                                ; preds = %5, %1
  %7 = load ptr, ptr %2, align 8
  %.not11.i = icmp eq ptr %7, null
  br i1 %.not11.i, label %9, label %8

8:                                                ; preds = %6
  tail call void @xmlFreeTextReader(ptr noundef nonnull %7) #11
  store ptr null, ptr %2, align 8
  br label %9

9:                                                ; preds = %8, %6
  %10 = getelementptr inbounds i8, ptr %0, i64 -16
  %11 = load ptr, ptr %10, align 8
  %.not12.i = icmp eq ptr %11, null
  br i1 %.not12.i, label %xmlreader_free_resources.exit, label %12

12:                                               ; preds = %9
  tail call void @xmlRelaxNGFree(ptr noundef nonnull %11) #11
  store ptr null, ptr %10, align 8
  br label %xmlreader_free_resources.exit

xmlreader_free_resources.exit:                    ; preds = %9, %12
  ret void
}